; Function Attrs: mustprogress nounwind uwtable
define hidden noundef zeroext i1 @_ZNK10methodOper3cmpERK8MachOper(ptr noundef nonnull align 8 dereferenceable(16) %0, ptr noundef nonnull align 8 dereferenceable(8) %1) unnamed_addr #6 align 2 {
  %3 = load ptr, ptr %0, align 8
  %4 = load ptr, ptr %3, align 8
  %5 = tail call noundef i32 %4(ptr noundef nonnull align 8 dereferenceable(16) %0) #13
  %6 = load ptr, ptr %1, align 8
  %7 = load ptr, ptr %6, align 8
  %8 = tail call noundef i32 %7(ptr noundef nonnull align 8 dereferenceable(8) %1) #13
  %9 = icmp eq i32 %5, %8
  br i1 %9, label %10, label %18

10:                                               ; preds = %2
  %11 = getelementptr inbounds i8, ptr %0, i64 8
  %12 = load i64, ptr %11, align 8
  %13 = load ptr, ptr %1, align 8
  %14 = getelementptr inbounds i8, ptr %13, i64 184
  %15 = load ptr, ptr %14, align 8
  %16 = tail call noundef i64 %15(ptr noundef nonnull align 8 dereferenceable(8) %1) #13
  %17 = icmp eq i64 %12, %16
  br label %18

18:                                               ; preds = %10, %2
  %19 = phi i1 [ false, %2 ], [ %17, %10 ]
  ret i1 %19
}